; ModuleID = '5/1106.c'
source_filename = "5/1106.c"
target datalayout = "e-m:e-p270:32:32-p271:32:32-p272:64:64-i64:64-f80:128-n8:16:32:64-S128"
target triple = "x86_64-pc-linux-gnu"

@.str = private unnamed_addr constant [4 x i8] c"%lf\00", align 1
@.str.1 = private unnamed_addr constant [5 x i8] c"%s%s\00", align 1
@.str.2 = private unnamed_addr constant [6 x i8] c"error\00", align 1
@.str.3 = private unnamed_addr constant [4 x i8] c"yes\00", align 1
@.str.4 = private unnamed_addr constant [3 x i8] c"no\00", align 1

; Function Attrs: noinline nounwind uwtable
define dso_local i32 @main() #0 {
  %1 = alloca i32, align 4
  %2 = alloca i32, align 4
  %3 = alloca i32, align 4
  %4 = alloca i32, align 4
  %5 = alloca i32, align 4
  %6 = alloca i32, align 4
  %7 = alloca i32, align 4
  %8 = alloca double, align 8
  %9 = alloca double, align 8
  %10 = alloca [501 x i8], align 16
  %11 = alloca [501 x i8], align 16
  store i32 0, i32* %1, align 4
  store i32 0, i32* %7, align 4
  %12 = call i32 (i8*, ...) @__isoc99_scanf(i8* getelementptr inbounds ([4 x i8], [4 x i8]* @.str, i64 0, i64 0), double* %8)
  %13 = getelementptr inbounds [501 x i8], [501 x i8]* %10, i64 0, i64 0
  %14 = getelementptr inbounds [501 x i8], [501 x i8]* %11, i64 0, i64 0
  %15 = call i32 (i8*, ...) @__isoc99_scanf(i8* getelementptr inbounds ([5 x i8], [5 x i8]* @.str.1, i64 0, i64 0), i8* %13, i8* %14)
  %16 = getelementptr inbounds [501 x i8], [501 x i8]* %10, i64 0, i64 0
  %17 = call i64 @strlen(i8* %16) #3
  %18 = trunc i64 %17 to i32
  store i32 %18, i32* %2, align 4
  %19 = getelementptr inbounds [501 x i8], [501 x i8]* %11, i64 0, i64 0
  %20 = call i64 @strlen(i8* %19) #3
  %21 = trunc i64 %20 to i32
  store i32 %21, i32* %3, align 4
  %22 = load i32, i32* %2, align 4
  %23 = load i32, i32* %3, align 4
  %24 = icmp ne i32 %22, %23
  br i1 %24, label %25, label %27

25:                                               ; preds = %0
  %26 = call i32 (i8*, ...) @printf(i8* getelementptr inbounds ([6 x i8], [6 x i8]* @.str.2, i64 0, i64 0))
  store i32 0, i32* %1, align 4
  br label %96

27:                                               ; preds = %0
  store i32 0, i32* %5, align 4
  br label %28

28:                                               ; preds = %77, %27
  %29 = load i32, i32* %5, align 4
  %30 = load i32, i32* %2, align 4
  %31 = icmp slt i32 %29, %30
  br i1 %31, label %32, label %80

32:                                               ; preds = %28
  %33 = load i32, i32* %5, align 4
  %34 = sext i32 %33 to i64
  %35 = getelementptr inbounds [501 x i8], [501 x i8]* %10, i64 0, i64 %34
  %36 = load i8, i8* %35, align 1
  %37 = sext i8 %36 to i32
  store i32 %37, i32* %4, align 4
  %38 = load i32, i32* %5, align 4
  %39 = sext i32 %38 to i64
  %40 = getelementptr inbounds [501 x i8], [501 x i8]* %11, i64 0, i64 %39
  %41 = load i8, i8* %40, align 1
  %42 = sext i8 %41 to i32
  store i32 %42, i32* %6, align 4
  %43 = load i32, i32* %4, align 4
  %44 = icmp eq i32 %43, 65
  br i1 %44, label %54, label %45

45:                                               ; preds = %32
  %46 = load i32, i32* %4, align 4
  %47 = icmp eq i32 %46, 84
  br i1 %47, label %54, label %48

48:                                               ; preds = %45
  %49 = load i32, i32* %4, align 4
  %50 = icmp eq i32 %49, 67
  br i1 %50, label %54, label %51

51:                                               ; preds = %48
  %52 = load i32, i32* %4, align 4
  %53 = icmp eq i32 %52, 71
  br i1 %53, label %54, label %74

54:                                               ; preds = %51, %48, %45, %32
  %55 = load i32, i32* %6, align 4
  %56 = icmp eq i32 %55, 65
  br i1 %56, label %66, label %57

57:                                               ; preds = %54
  %58 = load i32, i32* %6, align 4
  %59 = icmp eq i32 %58, 84
  br i1 %59, label %66, label %60

60:                                               ; preds = %57
  %61 = load i32, i32* %6, align 4
  %62 = icmp eq i32 %61, 67
  br i1 %62, label %66, label %63

63:                                               ; preds = %60
  %64 = load i32, i32* %6, align 4
  %65 = icmp eq i32 %64, 71
  br i1 %65, label %66, label %74

66:                                               ; preds = %63, %60, %57, %54
  %67 = load i32, i32* %4, align 4
  %68 = load i32, i32* %6, align 4
  %69 = icmp eq i32 %67, %68
  br i1 %69, label %70, label %73

70:                                               ; preds = %66
  %71 = load i32, i32* %7, align 4
  %72 = add nsw i32 %71, 1
  store i32 %72, i32* %7, align 4
  br label %73

73:                                               ; preds = %70, %66
  br label %76

74:                                               ; preds = %63, %51
  %75 = call i32 (i8*, ...) @printf(i8* getelementptr inbounds ([6 x i8], [6 x i8]* @.str.2, i64 0, i64 0))
  store i32 0, i32* %1, align 4
  br label %96

76:                                               ; preds = %73
  br label %77

77:                                               ; preds = %76
  %78 = load i32, i32* %5, align 4
  %79 = add nsw i32 %78, 1
  store i32 %79, i32* %5, align 4
  br label %28

80:                                               ; preds = %28
  br label %81

81:                                               ; preds = %80
  %82 = load i32, i32* %7, align 4
  %83 = sitofp i32 %82 to double
  %84 = fmul double 1.000000e+00, %83
  %85 = load i32, i32* %2, align 4
  %86 = sitofp i32 %85 to double
  %87 = fdiv double %84, %86
  store double %87, double* %9, align 8
  %88 = load double, double* %9, align 8
  %89 = load double, double* %8, align 8
  %90 = fcmp ogt double %88, %89
  br i1 %90, label %91, label %93

91:                                               ; preds = %81
  %92 = call i32 (i8*, ...) @printf(i8* getelementptr inbounds ([4 x i8], [4 x i8]* @.str.3, i64 0, i64 0))
  br label %95

93:                                               ; preds = %81
  %94 = call i32 (i8*, ...) @printf(i8* getelementptr inbounds ([3 x i8], [3 x i8]* @.str.4, i64 0, i64 0))
  br label %95

95:                                               ; preds = %93, %91
  store i32 0, i32* %1, align 4
  br label %96

96:                                               ; preds = %95, %74, %25
  %97 = load i32, i32* %1, align 4
  ret i32 %97
}

declare dso_local i32 @__isoc99_scanf(i8*, ...) #1

; Function Attrs: nounwind readonly
declare dso_local i64 @strlen(i8*) #2

declare dso_local i32 @printf(i8*, ...) #1


!llvm.module.flags = !{!0}
!llvm.ident = !{!1}

!0 = !{i32 1, !"wchar_size", i32 4}
!1 = !{!"clang version 10.0.0-4ubuntu1 "}
